target datalayout = "e-m:e-p270:32:32-p271:32:32-p272:64:64-i64:64-i128:128-f80:128-n8:16:32:64-S128"
target triple = "x86_64-pc-linux-gnu"

%struct.Vec_Ptr_t_ = type { i32, i32, ptr }
%struct.Cba_Ntk_t_ = type { ptr, i32, i32, i32, i8, %struct.Vec_Int_t_, %struct.Vec_Int_t_, %struct.Vec_Int_t_, %struct.Vec_Int_t_, %struct.Vec_Str_t_, %struct.Vec_Int_t_, %struct.Vec_Int_t_, %struct.Vec_Int_t_, %struct.Vec_Int_t_, %struct.Vec_Int_t_, %struct.Vec_Int_t_, %struct.Vec_Int_t_, %struct.Vec_Int_t_, %struct.Vec_Int_t_, %struct.Vec_Int_t_, %struct.Vec_Int_t_, %struct.Vec_Int_t_, %struct.Vec_Int_t_, %struct.Vec_Int_t_, %struct.Vec_Int_t_, %struct.Vec_Int_t_, %struct.Vec_Int_t_, %struct.Vec_Int_t_, ptr, %struct.Vec_Int_t_, %struct.Vec_Int_t_ }
%struct.Vec_Str_t_ = type { i32, i32, ptr }
%struct.Vec_Int_t_ = type { i32, i32, ptr }
%struct.Cba_Man_t_ = type { ptr, ptr, ptr, ptr, ptr, ptr, %struct.Vec_Int_t_, %struct.Vec_Int_t_, %struct.Vec_Int_t_, %struct.Vec_Int_t_, [90 x ptr], [90 x i32], [90 x i32], i32, %struct.Vec_Ptr_t_, i32, %struct.Vec_Str_t_, %struct.Vec_Str_t_, ptr }

@.str.7 = private unnamed_addr constant [5 x i8] c"%s%d\00", align 1
@.str.56 = private unnamed_addr constant [8 x i8] c"%s%d_%d\00", align 1

; Function Attrs: nounwind uwtable
define internal void @Vec_IntSetEntry(ptr noundef %0, i32 noundef %1, i32 noundef %2) #0 {
  %4 = alloca ptr, align 8
  %5 = alloca i32, align 4
  %6 = alloca i32, align 4
  store ptr %0, ptr %4, align 8
  store i32 %1, ptr %5, align 4
  store i32 %2, ptr %6, align 4
  %7 = load ptr, ptr %4, align 8
  %8 = load i32, ptr %5, align 4
  %9 = add nsw i32 %8, 1
  call void @Vec_IntFillExtra(ptr noundef %7, i32 noundef %9, i32 noundef 0)
  %10 = load ptr, ptr %4, align 8
  %11 = load i32, ptr %5, align 4
  %12 = load i32, ptr %6, align 4
  call void @Vec_IntWriteEntry(ptr noundef %10, i32 noundef %11, i32 noundef %12)
  ret void
}

; Function Attrs: nounwind uwtable
define internal i32 @Vec_IntGetEntry(ptr noundef %0, i32 noundef %1) #0 {
  %3 = alloca ptr, align 8
  %4 = alloca i32, align 4
  store ptr %0, ptr %3, align 8
  store i32 %1, ptr %4, align 4
  %5 = load ptr, ptr %3, align 8
  %6 = load i32, ptr %4, align 4
  %7 = add nsw i32 %6, 1
  call void @Vec_IntFillExtra(ptr noundef %5, i32 noundef %7, i32 noundef 0)
  %8 = load ptr, ptr %3, align 8
  %9 = load i32, ptr %4, align 4
  %10 = call i32 @Vec_IntEntry(ptr noundef %8, i32 noundef %9)
  ret i32 %10
}

; Function Attrs: nounwind uwtable
define internal void @Vec_IntClear(ptr noundef %0) #0 {
  %2 = alloca ptr, align 8
  store ptr %0, ptr %2, align 8
  %3 = load ptr, ptr %2, align 8
  %4 = getelementptr inbounds %struct.Vec_Int_t_, ptr %3, i32 0, i32 1
  store i32 0, ptr %4, align 4
  ret void
}

; Function Attrs: nounwind uwtable
define internal void @Vec_IntWriteEntry(ptr noundef %0, i32 noundef %1, i32 noundef %2) #0 {
  %4 = alloca ptr, align 8
  %5 = alloca i32, align 4
  %6 = alloca i32, align 4
  store ptr %0, ptr %4, align 8
  store i32 %1, ptr %5, align 4
  store i32 %2, ptr %6, align 4
  %7 = load i32, ptr %6, align 4
  %8 = load ptr, ptr %4, align 8
  %9 = getelementptr inbounds %struct.Vec_Int_t_, ptr %8, i32 0, i32 2
  %10 = load ptr, ptr %9, align 8
  %11 = load i32, ptr %5, align 4
  %12 = sext i32 %11 to i64
  %13 = getelementptr inbounds i32, ptr %10, i64 %12
  store i32 %7, ptr %13, align 4
  ret void
}

; Function Attrs: nounwind uwtable
define internal void @Cba_FonSetName(ptr noundef %0, i32 noundef %1, i32 noundef %2) #0 {
  %4 = alloca ptr, align 8
  %5 = alloca i32, align 4
  %6 = alloca i32, align 4
  store ptr %0, ptr %4, align 8
  store i32 %1, ptr %5, align 4
  store i32 %2, ptr %6, align 4
  %7 = load ptr, ptr %4, align 8
  %8 = getelementptr inbounds %struct.Cba_Ntk_t_, ptr %7, i32 0, i32 20
  %9 = load i32, ptr %5, align 4
  %10 = load i32, ptr %6, align 4
  call void @Vec_IntSetEntry(ptr noundef %8, i32 noundef %9, i32 noundef %10)
  ret void
}

; Function Attrs: nounwind uwtable
define internal i32 @Cba_ManGetMap(ptr noundef %0, i32 noundef %1) #0 {
  %3 = alloca ptr, align 8
  %4 = alloca i32, align 4
  store ptr %0, ptr %3, align 8
  store i32 %1, ptr %4, align 4
  %5 = load ptr, ptr %3, align 8
  %6 = getelementptr inbounds %struct.Cba_Man_t_, ptr %5, i32 0, i32 6
  %7 = load i32, ptr %4, align 4
  %8 = call i32 @Vec_IntGetEntry(ptr noundef %6, i32 noundef %7)
  ret i32 %8
}

; Function Attrs: nounwind uwtable
define internal i32 @Vec_IntEntry(ptr noundef %0, i32 noundef %1) #0 {
  %3 = alloca ptr, align 8
  %4 = alloca i32, align 4
  store ptr %0, ptr %3, align 8
  store i32 %1, ptr %4, align 4
  %5 = load ptr, ptr %3, align 8
  %6 = getelementptr inbounds %struct.Vec_Int_t_, ptr %5, i32 0, i32 2
  %7 = load ptr, ptr %6, align 8
  %8 = load i32, ptr %4, align 4
  %9 = sext i32 %8 to i64
  %10 = getelementptr inbounds i32, ptr %7, i64 %9
  %11 = load i32, ptr %10, align 4
  ret i32 %11
}

; Function Attrs: nounwind uwtable
define internal i32 @Vec_IntSize(ptr noundef %0) #0 {
  %2 = alloca ptr, align 8
  store ptr %0, ptr %2, align 8
  %3 = load ptr, ptr %2, align 8
  %4 = getelementptr inbounds %struct.Vec_Int_t_, ptr %3, i32 0, i32 1
  %5 = load i32, ptr %4, align 4
  ret i32 %5
}

; Function Attrs: nounwind uwtable
define internal void @Cba_ManCleanMap(ptr noundef %0) #0 {
  %2 = alloca ptr, align 8
  %3 = alloca i32, align 4
  %4 = alloca i32, align 4
  store ptr %0, ptr %2, align 8
  store i32 0, ptr %3, align 4
  br label %5

5:                                                ; preds = %22, %1
  %6 = load i32, ptr %3, align 4
  %7 = load ptr, ptr %2, align 8
  %8 = getelementptr inbounds %struct.Cba_Man_t_, ptr %7, i32 0, i32 8
  %9 = call i32 @Vec_IntSize(ptr noundef %8)
  %10 = icmp slt i32 %6, %9
  br i1 %10, label %11, label %16

11:                                               ; preds = %5
  %12 = load ptr, ptr %2, align 8
  %13 = getelementptr inbounds %struct.Cba_Man_t_, ptr %12, i32 0, i32 8
  %14 = load i32, ptr %3, align 4
  %15 = call i32 @Vec_IntEntry(ptr noundef %13, i32 noundef %14)
  store i32 %15, ptr %4, align 4
  br label %16

16:                                               ; preds = %11, %5
  %17 = phi i1 [ false, %5 ], [ true, %11 ]
  br i1 %17, label %18, label %25

18:                                               ; preds = %16
  %19 = load ptr, ptr %2, align 8
  %20 = getelementptr inbounds %struct.Cba_Man_t_, ptr %19, i32 0, i32 6
  %21 = load i32, ptr %4, align 4
  call void @Vec_IntWriteEntry(ptr noundef %20, i32 noundef %21, i32 noundef 0)
  br label %22

22:                                               ; preds = %18
  %23 = load i32, ptr %3, align 4
  %24 = add nsw i32 %23, 1
  store i32 %24, ptr %3, align 4
  br label %5, !llvm.loop !110

25:                                               ; preds = %16
  %26 = load ptr, ptr %2, align 8
  %27 = getelementptr inbounds %struct.Cba_Man_t_, ptr %26, i32 0, i32 8
  call void @Vec_IntClear(ptr noundef %27)
  ret void
}

; Function Attrs: nounwind uwtable
define internal void @Cba_NtkAddMissingFonNames(ptr noundef %0, ptr noundef %1) #0 {
  %3 = alloca ptr, align 8
  %4 = alloca ptr, align 8
  %5 = alloca i32, align 4
  %6 = alloca i32, align 4
  %7 = alloca i32, align 4
  store ptr %0, ptr %3, align 8
  store ptr %1, ptr %4, align 8
  %8 = load ptr, ptr %3, align 8
  %9 = getelementptr inbounds %struct.Cba_Ntk_t_, ptr %8, i32 0, i32 0
  %10 = load ptr, ptr %9, align 8
  call void @Cba_ManCleanMap(ptr noundef %10)
  store i32 1, ptr %5, align 4
  br label %11

11:                                               ; preds = %34, %2
  %12 = load i32, ptr %5, align 4
  %13 = load ptr, ptr %3, align 8
  %14 = getelementptr inbounds %struct.Cba_Ntk_t_, ptr %13, i32 0, i32 20
  %15 = call i32 @Vec_IntSize(ptr noundef %14)
  %16 = icmp slt i32 %12, %15
  br i1 %16, label %17, label %22

17:                                               ; preds = %11
  %18 = load ptr, ptr %3, align 8
  %19 = getelementptr inbounds %struct.Cba_Ntk_t_, ptr %18, i32 0, i32 20
  %20 = load i32, ptr %5, align 4
  %21 = call i32 @Vec_IntEntry(ptr noundef %19, i32 noundef %20)
  store i32 %21, ptr %6, align 4
  br label %22

22:                                               ; preds = %17, %11
  %23 = phi i1 [ false, %11 ], [ true, %17 ]
  br i1 %23, label %24, label %37

24:                                               ; preds = %22
  %25 = load i32, ptr %6, align 4
  %26 = icmp ne i32 %25, 0
  br i1 %26, label %27, label %33

27:                                               ; preds = %24
  %28 = load ptr, ptr %3, align 8
  %29 = getelementptr inbounds %struct.Cba_Ntk_t_, ptr %28, i32 0, i32 0
  %30 = load ptr, ptr %29, align 8
  %31 = load i32, ptr %6, align 4
  %32 = load i32, ptr %5, align 4
  call void @Cba_ManSetMap(ptr noundef %30, i32 noundef %31, i32 noundef %32)
  br label %33

33:                                               ; preds = %27, %24
  br label %34

34:                                               ; preds = %33
  %35 = load i32, ptr %5, align 4
  %36 = add nsw i32 %35, 1
  store i32 %36, ptr %5, align 4
  br label %11, !llvm.loop !107

37:                                               ; preds = %22
  store i32 1, ptr %5, align 4
  br label %38

38:                                               ; preds = %85, %37
  %39 = load i32, ptr %5, align 4
  %40 = load ptr, ptr %3, align 8
  %41 = getelementptr inbounds %struct.Cba_Ntk_t_, ptr %40, i32 0, i32 20
  %42 = call i32 @Vec_IntSize(ptr noundef %41)
  %43 = icmp slt i32 %39, %42
  br i1 %43, label %44, label %49

44:                                               ; preds = %38
  %45 = load ptr, ptr %3, align 8
  %46 = getelementptr inbounds %struct.Cba_Ntk_t_, ptr %45, i32 0, i32 20
  %47 = load i32, ptr %5, align 4
  %48 = call i32 @Vec_IntEntry(ptr noundef %46, i32 noundef %47)
  store i32 %48, ptr %6, align 4
  br label %49

49:                                               ; preds = %44, %38
  %50 = phi i1 [ false, %38 ], [ true, %44 ]
  br i1 %50, label %51, label %88

51:                                               ; preds = %49
  %52 = load i32, ptr %6, align 4
  %53 = icmp ne i32 %52, 0
  br i1 %53, label %54, label %55

54:                                               ; preds = %51
  br label %85

55:                                               ; preds = %51
  %56 = load ptr, ptr %3, align 8
  %57 = load ptr, ptr %4, align 8
  %58 = load i32, ptr %5, align 4
  %59 = call i32 (ptr, ptr, ...) @Cba_NtkNewStrId(ptr noundef %56, ptr noundef @.str.7, ptr noundef %57, i32 noundef %58)
  store i32 %59, ptr %6, align 4
  store i32 1, ptr %7, align 4
  br label %60

60:                                               ; preds = %73, %55
  %61 = load ptr, ptr %3, align 8
  %62 = getelementptr inbounds %struct.Cba_Ntk_t_, ptr %61, i32 0, i32 0
  %63 = load ptr, ptr %62, align 8
  %64 = load i32, ptr %6, align 4
  %65 = call i32 @Cba_ManGetMap(ptr noundef %63, i32 noundef %64)
  %66 = icmp ne i32 %65, 0
  br i1 %66, label %67, label %76

67:                                               ; preds = %60
  %68 = load ptr, ptr %3, align 8
  %69 = load ptr, ptr %4, align 8
  %70 = load i32, ptr %5, align 4
  %71 = load i32, ptr %7, align 4
  %72 = call i32 (ptr, ptr, ...) @Cba_NtkNewStrId(ptr noundef %68, ptr noundef @.str.56, ptr noundef %69, i32 noundef %70, i32 noundef %71)
  store i32 %72, ptr %6, align 4
  br label %73

73:                                               ; preds = %67
  %74 = load i32, ptr %7, align 4
  %75 = add nsw i32 %74, 1
  store i32 %75, ptr %7, align 4
  br label %60, !llvm.loop !108

76:                                               ; preds = %60
  %77 = load ptr, ptr %3, align 8
  %78 = load i32, ptr %5, align 4
  %79 = load i32, ptr %6, align 4
  call void @Cba_FonSetName(ptr noundef %77, i32 noundef %78, i32 noundef %79)
  %80 = load ptr, ptr %3, align 8
  %81 = getelementptr inbounds %struct.Cba_Ntk_t_, ptr %80, i32 0, i32 0
  %82 = load ptr, ptr %81, align 8
  %83 = load i32, ptr %6, align 4
  %84 = load i32, ptr %5, align 4
  call void @Cba_ManSetMap(ptr noundef %82, i32 noundef %83, i32 noundef %84)
  br label %85

85:                                               ; preds = %76, %54
  %86 = load i32, ptr %5, align 4
  %87 = add nsw i32 %86, 1
  store i32 %87, ptr %5, align 4
  br label %38, !llvm.loop !109

88:                                               ; preds = %49
  ret void
}