; Function Attrs: nounwind uwtable
define internal fastcc void @Cba_NtkAddMissingFonNames(ptr noundef captures(none) %0, ptr noundef %1) unnamed_addr #1 {
  %3 = load ptr, ptr %0, align 8
  %4 = getelementptr i8, ptr %3, i64 84
  %.val9.i = load i32, ptr %4, align 4
  %5 = icmp sgt i32 %.val9.i, 0
  br i1 %5, label %.lr.ph.i, label %Cba_ManCleanMap.exit

.lr.ph.i:                                         ; preds = %2
  %6 = getelementptr i8, ptr %3, i64 88
  %7 = getelementptr i8, ptr %3, i64 56
  br label %8

8:                                                ; preds = %8, %.lr.ph.i
  %indvars.iv.i = phi i64 [ 0, %.lr.ph.i ], [ %indvars.iv.next.i, %8 ]
  %.val7.i = load ptr, ptr %6, align 8
  %9 = getelementptr inbounds nuw i32, ptr %.val7.i, i64 %indvars.iv.i
  %10 = load i32, ptr %9, align 4
  %.val8.i = load ptr, ptr %7, align 8
  %11 = sext i32 %10 to i64
  %12 = getelementptr inbounds i32, ptr %.val8.i, i64 %11
  store i32 0, ptr %12, align 4
  %indvars.iv.next.i = add nuw nsw i64 %indvars.iv.i, 1
  %.val.i = load i32, ptr %4, align 4
  %13 = sext i32 %.val.i to i64
  %14 = icmp slt i64 %indvars.iv.next.i, %13
  br i1 %14, label %8, label %Cba_ManCleanMap.exit, !llvm.loop !115

Cba_ManCleanMap.exit:                             ; preds = %8, %2
  store i32 0, ptr %4, align 4
  %15 = getelementptr i8, ptr %0, i64 268
  %.val3848 = load i32, ptr %15, align 4
  %16 = icmp sgt i32 %.val3848, 1
  br i1 %16, label %.lr.ph, label %.critedge2

.lr.ph:                                           ; preds = %Cba_ManCleanMap.exit
  %17 = getelementptr i8, ptr %0, i64 272
  br label %21

.critedge.preheader:                              ; preds = %27
  %18 = getelementptr inbounds nuw i8, ptr %0, i64 264
  %19 = icmp sgt i32 %.val38, 1
  br i1 %19, label %.lr.ph52, label %.critedge2

.lr.ph52:                                         ; preds = %.critedge.preheader
  %20 = getelementptr i8, ptr %0, i64 272
  br label %30

21:                                               ; preds = %.lr.ph, %27
  %.val3857 = phi i32 [ %.val3848, %.lr.ph ], [ %.val38, %27 ]
  %indvars.iv = phi i64 [ 1, %.lr.ph ], [ %indvars.iv.next, %27 ]
  %.val40 = load ptr, ptr %17, align 8
  %22 = getelementptr inbounds nuw i32, ptr %.val40, i64 %indvars.iv
  %23 = load i32, ptr %22, align 4
  %.not37 = icmp eq i32 %23, 0
  br i1 %.not37, label %27, label %24

24:                                               ; preds = %21
  %25 = load ptr, ptr %0, align 8
  %26 = trunc nuw nsw i64 %indvars.iv to i32
  tail call fastcc void @Cba_ManSetMap(ptr noundef %25, i32 noundef %23, i32 noundef %26)
  %.val38.pre = load i32, ptr %15, align 4
  br label %27

27:                                               ; preds = %21, %24
  %.val38 = phi i32 [ %.val3857, %21 ], [ %.val38.pre, %24 ]
  %indvars.iv.next = add nuw nsw i64 %indvars.iv, 1
  %28 = sext i32 %.val38 to i64
  %29 = icmp slt i64 %indvars.iv.next, %28
  br i1 %29, label %21, label %.critedge.preheader, !llvm.loop !116

30:                                               ; preds = %.lr.ph52, %.critedge
  %.val60 = phi i32 [ %.val38, %.lr.ph52 ], [ %.val, %.critedge ]
  %indvars.iv54 = phi i64 [ 1, %.lr.ph52 ], [ %indvars.iv.next55.pre-phi, %.critedge ]
  %.val39 = load ptr, ptr %20, align 8
  %31 = getelementptr inbounds nuw i32, ptr %.val39, i64 %indvars.iv54
  %32 = load i32, ptr %31, align 4
  %.not = icmp eq i32 %32, 0
  br i1 %.not, label %33, label %..critedge_crit_edge

..critedge_crit_edge:                             ; preds = %30
  %.pre62 = add nuw nsw i64 %indvars.iv54, 1
  br label %.critedge

33:                                               ; preds = %30
  %34 = trunc nuw nsw i64 %indvars.iv54 to i32
  %35 = tail call i32 (ptr, ptr, ...) @Cba_NtkNewStrId(ptr noundef nonnull %0, ptr noundef nonnull @.str.7, ptr noundef %1, i32 noundef %34)
  br label %36

36:                                               ; preds = %79, %33
  %.033 = phi i32 [ %35, %33 ], [ %80, %79 ]
  %.0 = phi i32 [ 1, %33 ], [ %81, %79 ]
  %37 = load ptr, ptr %0, align 8
  %38 = getelementptr inbounds nuw i8, ptr %37, i64 48
  %39 = add nsw i32 %.033, 1
  %40 = getelementptr inbounds nuw i8, ptr %37, i64 52
  %41 = load i32, ptr %40, align 4
  %.not.i.not = icmp slt i32 %.033, %41
  br i1 %.not.i.not, label %Vec_IntFillExtra.exit, label %42

42:                                               ; preds = %36
  %43 = load i32, ptr %38, align 8
  %44 = shl nsw i32 %43, 1
  %.not45 = icmp slt i32 %.033, %44
  %.not.i.i.not = icmp sgt i32 %43, %.033
  br i1 %.not45, label %57, label %45

45:                                               ; preds = %42
  br i1 %.not.i.i.not, label %Vec_IntGrow.exit.i, label %46

46:                                               ; preds = %45
  %47 = getelementptr inbounds nuw i8, ptr %37, i64 56
  %48 = load ptr, ptr %47, align 8
  %.not9.i.i = icmp eq ptr %48, null
  %49 = sext i32 %39 to i64
  %50 = shl nsw i64 %49, 2
  br i1 %.not9.i.i, label %53, label %51

51:                                               ; preds = %46
  %52 = tail call ptr @realloc(ptr noundef nonnull %48, i64 noundef %50) #28
  br label %55

53:                                               ; preds = %46
  %54 = tail call noalias ptr @malloc(i64 noundef %50) #25
  br label %55

55:                                               ; preds = %53, %51
  %56 = phi ptr [ %52, %51 ], [ %54, %53 ]
  store ptr %56, ptr %47, align 8
  br label %Vec_IntGrow.exit.sink.split.i

57:                                               ; preds = %42
  br i1 %.not.i.i.not, label %Vec_IntGrow.exit.i, label %58

58:                                               ; preds = %57
  %59 = getelementptr inbounds nuw i8, ptr %37, i64 56
  %60 = load ptr, ptr %59, align 8
  %.not9.i21.i = icmp eq ptr %60, null
  %61 = sext i32 %44 to i64
  %62 = shl nsw i64 %61, 2
  br i1 %.not9.i21.i, label %65, label %63

63:                                               ; preds = %58
  %64 = tail call ptr @realloc(ptr noundef nonnull %60, i64 noundef %62) #28
  br label %67

65:                                               ; preds = %58
  %66 = tail call noalias ptr @malloc(i64 noundef %62) #25
  br label %67

67:                                               ; preds = %65, %63
  %68 = phi ptr [ %64, %63 ], [ %66, %65 ]
  store ptr %68, ptr %59, align 8
  br label %Vec_IntGrow.exit.sink.split.i

Vec_IntGrow.exit.sink.split.i:                    ; preds = %67, %55
  %.sink.i = phi i32 [ %44, %67 ], [ %39, %55 ]
  store i32 %.sink.i, ptr %38, align 8
  %.pre = load i32, ptr %40, align 4
  br label %Vec_IntGrow.exit.i

Vec_IntGrow.exit.i:                               ; preds = %Vec_IntGrow.exit.sink.split.i, %57, %45
  %69 = phi i32 [ %.pre, %Vec_IntGrow.exit.sink.split.i ], [ %41, %57 ], [ %41, %45 ]
  %.not46 = icmp sgt i32 %69, %.033
  br i1 %.not46, label %._crit_edge.i, label %.lr.ph.i42

.lr.ph.i42:                                       ; preds = %Vec_IntGrow.exit.i
  %70 = getelementptr inbounds nuw i8, ptr %37, i64 56
  %71 = sext i32 %69 to i64
  %wide.trip.count.i = sext i32 %39 to i64
  br label %72

72:                                               ; preds = %72, %.lr.ph.i42
  %indvars.iv.i43 = phi i64 [ %71, %.lr.ph.i42 ], [ %indvars.iv.next.i44, %72 ]
  %73 = load ptr, ptr %70, align 8
  %74 = getelementptr inbounds i32, ptr %73, i64 %indvars.iv.i43
  store i32 0, ptr %74, align 4
  %indvars.iv.next.i44 = add nsw i64 %indvars.iv.i43, 1
  %exitcond.not.i = icmp eq i64 %indvars.iv.next.i44, %wide.trip.count.i
  br i1 %exitcond.not.i, label %._crit_edge.i, label %72, !llvm.loop !24

._crit_edge.i:                                    ; preds = %72, %Vec_IntGrow.exit.i
  store i32 %39, ptr %40, align 4
  br label %Vec_IntFillExtra.exit

Vec_IntFillExtra.exit:                            ; preds = %36, %._crit_edge.i
  %75 = getelementptr i8, ptr %37, i64 56
  %.val.i.i = load ptr, ptr %75, align 8
  %76 = sext i32 %.033 to i64
  %77 = getelementptr inbounds i32, ptr %.val.i.i, i64 %76
  %78 = load i32, ptr %77, align 4
  %.not36 = icmp eq i32 %78, 0
  br i1 %.not36, label %82, label %79

79:                                               ; preds = %Vec_IntFillExtra.exit
  %80 = tail call i32 (ptr, ptr, ...) @Cba_NtkNewStrId(ptr noundef nonnull %0, ptr noundef nonnull @.str.56, ptr noundef %1, i32 noundef %34, i32 noundef %.0)
  %81 = add nuw nsw i32 %.0, 1
  br label %36, !llvm.loop !117

82:                                               ; preds = %Vec_IntFillExtra.exit
  %83 = add nuw nsw i64 %indvars.iv54, 1
  %84 = trunc nuw nsw i64 %83 to i32
  tail call fastcc void @Vec_IntFillExtra(ptr noundef nonnull %18, i32 noundef %84, i32 noundef 0)
  %.val.i.i41 = load ptr, ptr %20, align 8
  %85 = getelementptr inbounds nuw i32, ptr %.val.i.i41, i64 %indvars.iv54
  store i32 %.033, ptr %85, align 4
  %86 = load ptr, ptr %0, align 8
  tail call fastcc void @Cba_ManSetMap(ptr noundef %86, i32 noundef %.033, i32 noundef %34)
  %.val.pre = load i32, ptr %15, align 4
  br label %.critedge

.critedge:                                        ; preds = %..critedge_crit_edge, %82
  %indvars.iv.next55.pre-phi = phi i64 [ %.pre62, %..critedge_crit_edge ], [ %83, %82 ]
  %.val = phi i32 [ %.val60, %..critedge_crit_edge ], [ %.val.pre, %82 ]
  %87 = sext i32 %.val to i64
  %88 = icmp slt i64 %indvars.iv.next55.pre-phi, %87
  br i1 %88, label %30, label %.critedge2, !llvm.loop !118

.critedge2:                                       ; preds = %.critedge, %Cba_ManCleanMap.exit, %.critedge.preheader
  ret void
}